; ModuleID = '39/521.c'
source_filename = "39/521.c"
target datalayout = "e-m:e-p270:32:32-p271:32:32-p272:64:64-i64:64-f80:128-n8:16:32:64-S128"
target triple = "x86_64-pc-linux-gnu"

%struct.student = type { [40 x i8], i32, i32, i32, i32, i32, i32 }

@.str = private unnamed_addr constant [3 x i8] c"%d\00", align 1
@.str.1 = private unnamed_addr constant [18 x i8] c"%s %d %d %c %c %d\00", align 1
@stu = common dso_local global [100 x %struct.student] zeroinitializer, align 16
@.str.2 = private unnamed_addr constant [9 x i8] c"%s\0A%d\0A%d\00", align 1

; Function Attrs: noinline nounwind uwtable
define dso_local i32 @main() #0 {
  %1 = alloca i32, align 4
  %2 = alloca i32, align 4
  %3 = alloca i32, align 4
  %4 = alloca i32, align 4
  %5 = alloca i32, align 4
  %6 = alloca i32, align 4
  %7 = alloca i32, align 4
  store i32 0, i32* %1, align 4
  store i32 1, i32* %4, align 4
  store i32 0, i32* %5, align 4
  store i32 0, i32* %6, align 4
  %8 = call i32 (i8*, ...) @__isoc99_scanf(i8* getelementptr inbounds ([3 x i8], [3 x i8]* @.str, i64 0, i64 0), i32* %3)
  store i32 1, i32* %2, align 4
  br label %9

9:                                                ; preds = %39, %0
  %10 = load i32, i32* %2, align 4
  %11 = load i32, i32* %3, align 4
  %12 = icmp sle i32 %10, %11
  br i1 %12, label %13, label %42

13:                                               ; preds = %9
  %14 = load i32, i32* %2, align 4
  %15 = sext i32 %14 to i64
  %16 = getelementptr inbounds [100 x %struct.student], [100 x %struct.student]* @stu, i64 0, i64 %15
  %17 = getelementptr inbounds %struct.student, %struct.student* %16, i32 0, i32 0
  %18 = load i32, i32* %2, align 4
  %19 = sext i32 %18 to i64
  %20 = getelementptr inbounds [100 x %struct.student], [100 x %struct.student]* @stu, i64 0, i64 %19
  %21 = getelementptr inbounds %struct.student, %struct.student* %20, i32 0, i32 1
  %22 = load i32, i32* %2, align 4
  %23 = sext i32 %22 to i64
  %24 = getelementptr inbounds [100 x %struct.student], [100 x %struct.student]* @stu, i64 0, i64 %23
  %25 = getelementptr inbounds %struct.student, %struct.student* %24, i32 0, i32 2
  %26 = load i32, i32* %2, align 4
  %27 = sext i32 %26 to i64
  %28 = getelementptr inbounds [100 x %struct.student], [100 x %struct.student]* @stu, i64 0, i64 %27
  %29 = getelementptr inbounds %struct.student, %struct.student* %28, i32 0, i32 3
  %30 = load i32, i32* %2, align 4
  %31 = sext i32 %30 to i64
  %32 = getelementptr inbounds [100 x %struct.student], [100 x %struct.student]* @stu, i64 0, i64 %31
  %33 = getelementptr inbounds %struct.student, %struct.student* %32, i32 0, i32 4
  %34 = load i32, i32* %2, align 4
  %35 = sext i32 %34 to i64
  %36 = getelementptr inbounds [100 x %struct.student], [100 x %struct.student]* @stu, i64 0, i64 %35
  %37 = getelementptr inbounds %struct.student, %struct.student* %36, i32 0, i32 5
  %38 = call i32 (i8*, ...) @__isoc99_scanf(i8* getelementptr inbounds ([18 x i8], [18 x i8]* @.str.1, i64 0, i64 0), [40 x i8]* %17, i32* %21, i32* %25, i32* %29, i32* %33, i32* %37)
  br label %39

39:                                               ; preds = %13
  %40 = load i32, i32* %2, align 4
  %41 = add nsw i32 %40, 1
  store i32 %41, i32* %2, align 4
  br label %9

42:                                               ; preds = %9
  store i32 1, i32* %2, align 4
  br label %43

43:                                               ; preds = %153, %42
  %44 = load i32, i32* %2, align 4
  %45 = load i32, i32* %3, align 4
  %46 = icmp sle i32 %44, %45
  br i1 %46, label %47, label %156

47:                                               ; preds = %43
  %48 = load i32, i32* %2, align 4
  %49 = sext i32 %48 to i64
  %50 = getelementptr inbounds [100 x %struct.student], [100 x %struct.student]* @stu, i64 0, i64 %49
  %51 = getelementptr inbounds %struct.student, %struct.student* %50, i32 0, i32 1
  %52 = load i32, i32* %51, align 8
  %53 = icmp sgt i32 %52, 80
  br i1 %53, label %54, label %68

54:                                               ; preds = %47
  %55 = load i32, i32* %2, align 4
  %56 = sext i32 %55 to i64
  %57 = getelementptr inbounds [100 x %struct.student], [100 x %struct.student]* @stu, i64 0, i64 %56
  %58 = getelementptr inbounds %struct.student, %struct.student* %57, i32 0, i32 5
  %59 = load i32, i32* %58, align 8
  %60 = icmp sge i32 %59, 1
  br i1 %60, label %61, label %68

61:                                               ; preds = %54
  %62 = load i32, i32* %2, align 4
  %63 = sext i32 %62 to i64
  %64 = getelementptr inbounds [100 x %struct.student], [100 x %struct.student]* @stu, i64 0, i64 %63
  %65 = getelementptr inbounds %struct.student, %struct.student* %64, i32 0, i32 6
  %66 = load i32, i32* %65, align 4
  %67 = add nsw i32 %66, 8000
  store i32 %67, i32* %65, align 4
  br label %68

68:                                               ; preds = %61, %54, %47
  %69 = load i32, i32* %2, align 4
  %70 = sext i32 %69 to i64
  %71 = getelementptr inbounds [100 x %struct.student], [100 x %struct.student]* @stu, i64 0, i64 %70
  %72 = getelementptr inbounds %struct.student, %struct.student* %71, i32 0, i32 1
  %73 = load i32, i32* %72, align 8
  %74 = icmp sgt i32 %73, 85
  br i1 %74, label %75, label %89

75:                                               ; preds = %68
  %76 = load i32, i32* %2, align 4
  %77 = sext i32 %76 to i64
  %78 = getelementptr inbounds [100 x %struct.student], [100 x %struct.student]* @stu, i64 0, i64 %77
  %79 = getelementptr inbounds %struct.student, %struct.student* %78, i32 0, i32 2
  %80 = load i32, i32* %79, align 4
  %81 = icmp sgt i32 %80, 80
  br i1 %81, label %82, label %89

82:                                               ; preds = %75
  %83 = load i32, i32* %2, align 4
  %84 = sext i32 %83 to i64
  %85 = getelementptr inbounds [100 x %struct.student], [100 x %struct.student]* @stu, i64 0, i64 %84
  %86 = getelementptr inbounds %struct.student, %struct.student* %85, i32 0, i32 6
  %87 = load i32, i32* %86, align 4
  %88 = add nsw i32 %87, 4000
  store i32 %88, i32* %86, align 4
  br label %89

89:                                               ; preds = %82, %75, %68
  %90 = load i32, i32* %2, align 4
  %91 = sext i32 %90 to i64
  %92 = getelementptr inbounds [100 x %struct.student], [100 x %struct.student]* @stu, i64 0, i64 %91
  %93 = getelementptr inbounds %struct.student, %struct.student* %92, i32 0, i32 1
  %94 = load i32, i32* %93, align 8
  %95 = icmp sgt i32 %94, 90
  br i1 %95, label %96, label %103

96:                                               ; preds = %89
  %97 = load i32, i32* %2, align 4
  %98 = sext i32 %97 to i64
  %99 = getelementptr inbounds [100 x %struct.student], [100 x %struct.student]* @stu, i64 0, i64 %98
  %100 = getelementptr inbounds %struct.student, %struct.student* %99, i32 0, i32 6
  %101 = load i32, i32* %100, align 4
  %102 = add nsw i32 %101, 2000
  store i32 %102, i32* %100, align 4
  br label %103

103:                                              ; preds = %96, %89
  %104 = load i32, i32* %2, align 4
  %105 = sext i32 %104 to i64
  %106 = getelementptr inbounds [100 x %struct.student], [100 x %struct.student]* @stu, i64 0, i64 %105
  %107 = getelementptr inbounds %struct.student, %struct.student* %106, i32 0, i32 1
  %108 = load i32, i32* %107, align 8
  %109 = icmp sgt i32 %108, 85
  br i1 %109, label %110, label %124

110:                                              ; preds = %103
  %111 = load i32, i32* %2, align 4
  %112 = sext i32 %111 to i64
  %113 = getelementptr inbounds [100 x %struct.student], [100 x %struct.student]* @stu, i64 0, i64 %112
  %114 = getelementptr inbounds %struct.student, %struct.student* %113, i32 0, i32 4
  %115 = load i32, i32* %114, align 4
  %116 = icmp eq i32 %115, 89
  br i1 %116, label %117, label %124

117:                                              ; preds = %110
  %118 = load i32, i32* %2, align 4
  %119 = sext i32 %118 to i64
  %120 = getelementptr inbounds [100 x %struct.student], [100 x %struct.student]* @stu, i64 0, i64 %119
  %121 = getelementptr inbounds %struct.student, %struct.student* %120, i32 0, i32 6
  %122 = load i32, i32* %121, align 4
  %123 = add nsw i32 %122, 1000
  store i32 %123, i32* %121, align 4
  br label %124

124:                                              ; preds = %117, %110, %103
  %125 = load i32, i32* %2, align 4
  %126 = sext i32 %125 to i64
  %127 = getelementptr inbounds [100 x %struct.student], [100 x %struct.student]* @stu, i64 0, i64 %126
  %128 = getelementptr inbounds %struct.student, %struct.student* %127, i32 0, i32 2
  %129 = load i32, i32* %128, align 4
  %130 = icmp sgt i32 %129, 80
  br i1 %130, label %131, label %145

131:                                              ; preds = %124
  %132 = load i32, i32* %2, align 4
  %133 = sext i32 %132 to i64
  %134 = getelementptr inbounds [100 x %struct.student], [100 x %struct.student]* @stu, i64 0, i64 %133
  %135 = getelementptr inbounds %struct.student, %struct.student* %134, i32 0, i32 3
  %136 = load i32, i32* %135, align 16
  %137 = icmp eq i32 %136, 89
  br i1 %137, label %138, label %145

138:                                              ; preds = %131
  %139 = load i32, i32* %2, align 4
  %140 = sext i32 %139 to i64
  %141 = getelementptr inbounds [100 x %struct.student], [100 x %struct.student]* @stu, i64 0, i64 %140
  %142 = getelementptr inbounds %struct.student, %struct.student* %141, i32 0, i32 6
  %143 = load i32, i32* %142, align 4
  %144 = add nsw i32 %143, 850
  store i32 %144, i32* %142, align 4
  br label %145

145:                                              ; preds = %138, %131, %124
  %146 = load i32, i32* %2, align 4
  %147 = sext i32 %146 to i64
  %148 = getelementptr inbounds [100 x %struct.student], [100 x %struct.student]* @stu, i64 0, i64 %147
  %149 = getelementptr inbounds %struct.student, %struct.student* %148, i32 0, i32 6
  %150 = load i32, i32* %149, align 4
  %151 = load i32, i32* %5, align 4
  %152 = add nsw i32 %151, %150
  store i32 %152, i32* %5, align 4
  br label %153

153:                                              ; preds = %145
  %154 = load i32, i32* %2, align 4
  %155 = add nsw i32 %154, 1
  store i32 %155, i32* %2, align 4
  br label %43

156:                                              ; preds = %43
  store i32 1, i32* %2, align 4
  br label %157

157:                                              ; preds = %177, %156
  %158 = load i32, i32* %2, align 4
  %159 = load i32, i32* %3, align 4
  %160 = icmp sle i32 %158, %159
  br i1 %160, label %161, label %180

161:                                              ; preds = %157
  %162 = load i32, i32* %2, align 4
  %163 = sext i32 %162 to i64
  %164 = getelementptr inbounds [100 x %struct.student], [100 x %struct.student]* @stu, i64 0, i64 %163
  %165 = getelementptr inbounds %struct.student, %struct.student* %164, i32 0, i32 6
  %166 = load i32, i32* %165, align 4
  %167 = load i32, i32* %6, align 4
  %168 = icmp sgt i32 %166, %167
  br i1 %168, label %169, label %176

169:                                              ; preds = %161
  %170 = load i32, i32* %2, align 4
  %171 = sext i32 %170 to i64
  %172 = getelementptr inbounds [100 x %struct.student], [100 x %struct.student]* @stu, i64 0, i64 %171
  %173 = getelementptr inbounds %struct.student, %struct.student* %172, i32 0, i32 6
  %174 = load i32, i32* %173, align 4
  store i32 %174, i32* %6, align 4
  %175 = load i32, i32* %2, align 4
  store i32 %175, i32* %7, align 4
  br label %176

176:                                              ; preds = %169, %161
  br label %177

177:                                              ; preds = %176
  %178 = load i32, i32* %2, align 4
  %179 = add nsw i32 %178, 1
  store i32 %179, i32* %2, align 4
  br label %157

180:                                              ; preds = %157
  %181 = load i32, i32* %7, align 4
  %182 = sext i32 %181 to i64
  %183 = getelementptr inbounds [100 x %struct.student], [100 x %struct.student]* @stu, i64 0, i64 %182
  %184 = getelementptr inbounds %struct.student, %struct.student* %183, i32 0, i32 0
  %185 = getelementptr inbounds [40 x i8], [40 x i8]* %184, i64 0, i64 0
  %186 = load i32, i32* %7, align 4
  %187 = sext i32 %186 to i64
  %188 = getelementptr inbounds [100 x %struct.student], [100 x %struct.student]* @stu, i64 0, i64 %187
  %189 = getelementptr inbounds %struct.student, %struct.student* %188, i32 0, i32 6
  %190 = load i32, i32* %189, align 4
  %191 = load i32, i32* %5, align 4
  %192 = call i32 (i8*, ...) @printf(i8* getelementptr inbounds ([9 x i8], [9 x i8]* @.str.2, i64 0, i64 0), i8* %185, i32 %190, i32 %191)
  ret i32 0
}

declare dso_local i32 @__isoc99_scanf(i8*, ...) #1

declare dso_local i32 @printf(i8*, ...) #1


!llvm.module.flags = !{!0}
!llvm.ident = !{!1}

!0 = !{i32 1, !"wchar_size", i32 4}
!1 = !{!"clang version 10.0.0-4ubuntu1 "}
